target datalayout = "e-m:e-p270:32:32-p271:32:32-p272:64:64-i64:64-i128:128-f80:128-n8:16:32:64-S128"
target triple = "x86_64-unknown-linux-gnu"

%"class.icu_75::UnicodeSet" = type <{ %"class.icu_75::UnicodeFilter", ptr, i32, i32, i8, [7 x i8], ptr, ptr, i32, [4 x i8], ptr, i32, [4 x i8], ptr, ptr, [25 x i32], [4 x i8] }>
%"class.icu_75::UnicodeFilter" = type { %"class.icu_75::UnicodeFunctor", %"class.icu_75::UnicodeMatcher" }
%"class.icu_75::UnicodeFunctor" = type { %"class.icu_75::UObject" }
%"class.icu_75::UObject" = type { ptr }
%"class.icu_75::UnicodeMatcher" = type { ptr }

; Function Attrs: mustprogress nounwind uwtable
define noundef i32 @_ZNK6icu_7510UnicodeSet7indexOfEi(ptr noundef nonnull align 8 dereferenceable(200) %this, i32 noundef %c) #0 align 2 {
entry:
  %retval = alloca i32, align 4
  %this.addr = alloca ptr, align 8
  %c.addr = alloca i32, align 4
  %i = alloca i32, align 4
  %n = alloca i32, align 4
  %start = alloca i32, align 4
  %limit = alloca i32, align 4
  store ptr %this, ptr %this.addr, align 8
  store i32 %c, ptr %c.addr, align 4
  %this1 = load ptr, ptr %this.addr, align 8
  %0 = load i32, ptr %c.addr, align 4
  %cmp = icmp slt i32 %0, 0
  br i1 %cmp, label %if.then, label %lor.lhs.false

lor.lhs.false:                                    ; preds = %entry
  %1 = load i32, ptr %c.addr, align 4
  %cmp2 = icmp sgt i32 %1, 1114111
  br i1 %cmp2, label %if.then, label %if.end

if.then:                                          ; preds = %lor.lhs.false, %entry
  store i32 -1, ptr %retval, align 4
  br label %return

if.end:                                           ; preds = %lor.lhs.false
  store i32 0, ptr %i, align 4
  store i32 0, ptr %n, align 4
  br label %for.cond

for.cond:                                         ; preds = %if.end12, %if.end
  %list = getelementptr inbounds %"class.icu_75::UnicodeSet", ptr %this1, i32 0, i32 1
  %2 = load ptr, ptr %list, align 8
  %3 = load i32, ptr %i, align 4
  %inc = add nsw i32 %3, 1
  store i32 %inc, ptr %i, align 4
  %idxprom = sext i32 %3 to i64
  %arrayidx = getelementptr inbounds i32, ptr %2, i64 %idxprom
  %4 = load i32, ptr %arrayidx, align 4
  store i32 %4, ptr %start, align 4
  %5 = load i32, ptr %c.addr, align 4
  %6 = load i32, ptr %start, align 4
  %cmp3 = icmp slt i32 %5, %6
  br i1 %cmp3, label %if.then4, label %if.end5

if.then4:                                         ; preds = %for.cond
  store i32 -1, ptr %retval, align 4
  br label %return

if.end5:                                          ; preds = %for.cond
  %list6 = getelementptr inbounds %"class.icu_75::UnicodeSet", ptr %this1, i32 0, i32 1
  %7 = load ptr, ptr %list6, align 8
  %8 = load i32, ptr %i, align 4
  %inc7 = add nsw i32 %8, 1
  store i32 %inc7, ptr %i, align 4
  %idxprom8 = sext i32 %8 to i64
  %arrayidx9 = getelementptr inbounds i32, ptr %7, i64 %idxprom8
  %9 = load i32, ptr %arrayidx9, align 4
  store i32 %9, ptr %limit, align 4
  %10 = load i32, ptr %c.addr, align 4
  %11 = load i32, ptr %limit, align 4
  %cmp10 = icmp slt i32 %10, %11
  br i1 %cmp10, label %if.then11, label %if.end12

if.then11:                                        ; preds = %if.end5
  %12 = load i32, ptr %n, align 4
  %13 = load i32, ptr %c.addr, align 4
  %add = add nsw i32 %12, %13
  %14 = load i32, ptr %start, align 4
  %sub = sub nsw i32 %add, %14
  store i32 %sub, ptr %retval, align 4
  br label %return

if.end12:                                         ; preds = %if.end5
  %15 = load i32, ptr %limit, align 4
  %16 = load i32, ptr %start, align 4
  %sub13 = sub nsw i32 %15, %16
  %17 = load i32, ptr %n, align 4
  %add14 = add nsw i32 %17, %sub13
  store i32 %add14, ptr %n, align 4
  br label %for.cond, !llvm.loop !18

return:                                           ; preds = %if.then11, %if.then4, %if.then
  %18 = load i32, ptr %retval, align 4
  ret i32 %18
}