; Function Attrs: mustprogress nofree norecurse nosync nounwind willreturn memory(read, inaccessiblemem: none) uwtable
define noundef i32 @_ZNK6icu_7510UnicodeSet7indexOfEi(ptr nocapture noundef nonnull readonly align 8 dereferenceable(200) %this, i32 noundef %c) local_unnamed_addr #9 align 2 {
entry:
  %or.cond = icmp ugt i32 %c, 1114111
  br i1 %or.cond, label %return, label %for.cond.preheader

for.cond.preheader:                               ; preds = %entry
  %list = getelementptr inbounds i8, ptr %this, i64 16
  %0 = load ptr, ptr %list, align 8
  %1 = load i32, ptr %0, align 4
  %cmp314 = icmp sgt i32 %1, %c
  br i1 %cmp314, label %return, label %if.end5

if.end5:                                          ; preds = %for.cond.preheader, %if.end12
  %indvars.iv = phi i64 [ %indvars.iv.next, %if.end12 ], [ 0, %for.cond.preheader ]
  %.pn = phi i32 [ %4, %if.end12 ], [ %1, %for.cond.preheader ]
  %n.015 = phi i32 [ %add14, %if.end12 ], [ 0, %for.cond.preheader ]
  %2 = or disjoint i64 %indvars.iv, 1
  %arrayidx9 = getelementptr inbounds i32, ptr %0, i64 %2
  %3 = load i32, ptr %arrayidx9, align 4
  %cmp10 = icmp sgt i32 %3, %c
  br i1 %cmp10, label %if.then11, label %if.end12

if.then11:                                        ; preds = %if.end5
  %add = add nsw i32 %n.015, %c
  %sub = sub i32 %add, %.pn
  br label %return

if.end12:                                         ; preds = %if.end5
  %indvars.iv.next = add nuw nsw i64 %indvars.iv, 2
  %sub13 = sub i32 %n.015, %.pn
  %add14 = add i32 %sub13, %3
  %arrayidx = getelementptr inbounds i32, ptr %0, i64 %indvars.iv.next
  %4 = load i32, ptr %arrayidx, align 4
  %cmp3 = icmp sgt i32 %4, %c
  br i1 %cmp3, label %return, label %if.end5, !llvm.loop !19

return:                                           ; preds = %if.end12, %for.cond.preheader, %entry, %if.then11
  %retval.0 = phi i32 [ %sub, %if.then11 ], [ -1, %entry ], [ -1, %for.cond.preheader ], [ -1, %if.end12 ]
  ret i32 %retval.0
}